target datalayout = "e-m:e-p270:32:32-p271:32:32-p272:64:64-i64:64-i128:128-f80:128-n8:16:32:64-S128"
target triple = "x86_64-pc-linux-gnu"

%struct.tm = type { i32, i32, i32, i32, i32, i32, i32, i32, i32, i64, ptr }

@.str.16 = private unnamed_addr constant [36 x i8] c"Couldn't get localtime from end %ld\00", align 1
@.str.17 = private unnamed_addr constant [41 x i8] c"Couldn't get localtime from user end %ld\00", align 1
@.str.18 = private unnamed_addr constant [38 x i8] c"Couldn't get localtime from start %ld\00", align 1
@.str.19 = private unnamed_addr constant [43 x i8] c"Couldn't get localtime from user start %ld\00", align 1
@.str.20 = private unnamed_addr constant [43 x i8] c"2 Couldn't get localtime from user end %ld\00", align 1
@assoc_hour_table = external global ptr, align 8
@qos_hour_table = external global ptr, align 8
@wckey_hour_table = external global ptr, align 8
@cluster_hour_table = external global ptr, align 8
@.str.21 = private unnamed_addr constant [36 x i8] c"Bad type given for hour usage %d %s\00", align 1
@assoc_month_table = external global ptr, align 8
@qos_month_table = external global ptr, align 8
@wckey_month_table = external global ptr, align 8
@cluster_month_table = external global ptr, align 8
@.str.22 = private unnamed_addr constant [37 x i8] c"Bad type given for month usage %d %s\00", align 1

; Function Attrs: nounwind uwtable
define dso_local i32 @set_usage_information(ptr noundef %0, i32 noundef %1, ptr noundef %2, ptr noundef %3) #0 {
  %5 = alloca i32, align 4
  %6 = alloca ptr, align 8
  %7 = alloca i32, align 4
  %8 = alloca ptr, align 8
  %9 = alloca ptr, align 8
  %10 = alloca i64, align 8
  %11 = alloca i64, align 8
  %12 = alloca i64, align 8
  %13 = alloca %struct.tm, align 8
  %14 = alloca %struct.tm, align 8
  %15 = alloca ptr, align 8
  %16 = alloca i32, align 4
  store ptr %0, ptr %6, align 8
  store i32 %1, ptr %7, align 4
  store ptr %2, ptr %8, align 8
  store ptr %3, ptr %9, align 8
  call void @llvm.lifetime.start.p0(i64 8, ptr %10) #8
  %17 = load ptr, ptr %8, align 8
  %18 = load i64, ptr %17, align 8
  store i64 %18, ptr %10, align 8
  call void @llvm.lifetime.start.p0(i64 8, ptr %11) #8
  %19 = load ptr, ptr %9, align 8
  %20 = load i64, ptr %19, align 8
  store i64 %20, ptr %11, align 8
  call void @llvm.lifetime.start.p0(i64 8, ptr %12) #8
  %21 = call i64 @time(ptr noundef null) #8
  store i64 %21, ptr %12, align 8
  call void @llvm.lifetime.start.p0(i64 56, ptr %13) #8
  call void @llvm.lifetime.start.p0(i64 56, ptr %14) #8
  call void @llvm.lifetime.start.p0(i64 8, ptr %15) #8
  %22 = load ptr, ptr %6, align 8
  %23 = load ptr, ptr %22, align 8
  store ptr %23, ptr %15, align 8
  %24 = load i64, ptr %11, align 8
  %25 = icmp ne i64 %24, 0
  br i1 %25, label %34, label %26

26:                                               ; preds = %4
  %27 = call ptr @localtime_r(ptr noundef %12, ptr noundef %14) #8
  %28 = icmp ne ptr %27, null
  br i1 %28, label %32, label %29

29:                                               ; preds = %26
  %30 = load i64, ptr %12, align 8
  %31 = call i32 (ptr, ...) @slurm_error(ptr noundef @.str.16, i64 noundef %30)
  store i32 -1, ptr %5, align 4
  store i32 1, ptr %16, align 4
  br label %152

32:                                               ; preds = %26
  %33 = getelementptr inbounds nuw %struct.tm, ptr %14, i32 0, i32 2
  store i32 0, ptr %33, align 8
  br label %41

34:                                               ; preds = %4
  %35 = call ptr @localtime_r(ptr noundef %11, ptr noundef %14) #8
  %36 = icmp ne ptr %35, null
  br i1 %36, label %40, label %37

37:                                               ; preds = %34
  %38 = load i64, ptr %11, align 8
  %39 = call i32 (ptr, ...) @slurm_error(ptr noundef @.str.17, i64 noundef %38)
  store i32 -1, ptr %5, align 4
  store i32 1, ptr %16, align 4
  br label %152

40:                                               ; preds = %34
  br label %41

41:                                               ; preds = %40, %32
  %42 = getelementptr inbounds nuw %struct.tm, ptr %14, i32 0, i32 0
  store i32 0, ptr %42, align 8
  %43 = getelementptr inbounds nuw %struct.tm, ptr %14, i32 0, i32 1
  store i32 0, ptr %43, align 4
  %44 = call i64 @slurm_mktime(ptr noundef %14)
  store i64 %44, ptr %11, align 8
  %45 = load i64, ptr %10, align 8
  %46 = icmp ne i64 %45, 0
  br i1 %46, label %58, label %47

47:                                               ; preds = %41
  %48 = call ptr @localtime_r(ptr noundef %12, ptr noundef %13) #8
  %49 = icmp ne ptr %48, null
  br i1 %49, label %53, label %50

50:                                               ; preds = %47
  %51 = load i64, ptr %12, align 8
  %52 = call i32 (ptr, ...) @slurm_error(ptr noundef @.str.18, i64 noundef %51)
  store i32 -1, ptr %5, align 4
  store i32 1, ptr %16, align 4
  br label %152

53:                                               ; preds = %47
  %54 = getelementptr inbounds nuw %struct.tm, ptr %13, i32 0, i32 2
  store i32 0, ptr %54, align 8
  %55 = getelementptr inbounds nuw %struct.tm, ptr %13, i32 0, i32 3
  %56 = load i32, ptr %55, align 4
  %57 = add nsw i32 %56, -1
  store i32 %57, ptr %55, align 4
  br label %65

58:                                               ; preds = %41
  %59 = call ptr @localtime_r(ptr noundef %10, ptr noundef %13) #8
  %60 = icmp ne ptr %59, null
  br i1 %60, label %64, label %61

61:                                               ; preds = %58
  %62 = load i64, ptr %10, align 8
  %63 = call i32 (ptr, ...) @slurm_error(ptr noundef @.str.19, i64 noundef %62)
  store i32 -1, ptr %5, align 4
  store i32 1, ptr %16, align 4
  br label %152

64:                                               ; preds = %58
  br label %65

65:                                               ; preds = %64, %53
  %66 = getelementptr inbounds nuw %struct.tm, ptr %13, i32 0, i32 0
  store i32 0, ptr %66, align 8
  %67 = getelementptr inbounds nuw %struct.tm, ptr %13, i32 0, i32 1
  store i32 0, ptr %67, align 4
  %68 = call i64 @slurm_mktime(ptr noundef %13)
  store i64 %68, ptr %10, align 8
  %69 = load i64, ptr %11, align 8
  %70 = load i64, ptr %10, align 8
  %71 = sub nsw i64 %69, %70
  %72 = icmp slt i64 %71, 3600
  br i1 %72, label %73, label %82

73:                                               ; preds = %65
  %74 = load i64, ptr %10, align 8
  %75 = add nsw i64 %74, 3600
  store i64 %75, ptr %11, align 8
  %76 = call ptr @localtime_r(ptr noundef %11, ptr noundef %14) #8
  %77 = icmp ne ptr %76, null
  br i1 %77, label %81, label %78

78:                                               ; preds = %73
  %79 = load i64, ptr %11, align 8
  %80 = call i32 (ptr, ...) @slurm_error(ptr noundef @.str.20, i64 noundef %79)
  store i32 -1, ptr %5, align 4
  store i32 1, ptr %16, align 4
  br label %152

81:                                               ; preds = %73
  br label %82

82:                                               ; preds = %81, %65
  %83 = getelementptr inbounds nuw %struct.tm, ptr %13, i32 0, i32 2
  %84 = load i32, ptr %83, align 8
  %85 = icmp ne i32 %84, 0
  br i1 %85, label %99, label %86

86:                                               ; preds = %82
  %87 = getelementptr inbounds nuw %struct.tm, ptr %14, i32 0, i32 2
  %88 = load i32, ptr %87, align 8
  %89 = icmp ne i32 %88, 0
  br i1 %89, label %99, label %90

90:                                               ; preds = %86
  %91 = load i64, ptr %11, align 8
  %92 = load i64, ptr %10, align 8
  %93 = sub nsw i64 %91, %92
  %94 = icmp slt i64 %93, 86400
  br i1 %94, label %99, label %95

95:                                               ; preds = %90
  %96 = load i64, ptr %11, align 8
  %97 = load i64, ptr %12, align 8
  %98 = icmp sgt i64 %96, %97
  br i1 %98, label %99, label %115

99:                                               ; preds = %95, %90, %86, %82
  %100 = load i32, ptr %7, align 4
  switch i32 %100, label %109 [
    i32 1411, label %101
    i32 1505, label %103
    i32 1457, label %105
    i32 1413, label %107
  ]

101:                                              ; preds = %99
  %102 = load ptr, ptr @assoc_hour_table, align 8
  store ptr %102, ptr %15, align 8
  br label %114

103:                                              ; preds = %99
  %104 = load ptr, ptr @qos_hour_table, align 8
  store ptr %104, ptr %15, align 8
  br label %114

105:                                              ; preds = %99
  %106 = load ptr, ptr @wckey_hour_table, align 8
  store ptr %106, ptr %15, align 8
  br label %114

107:                                              ; preds = %99
  %108 = load ptr, ptr @cluster_hour_table, align 8
  store ptr %108, ptr %15, align 8
  br label %114

109:                                              ; preds = %99
  %110 = load i32, ptr %7, align 4
  %111 = load i32, ptr %7, align 4
  %112 = call ptr @slurmdbd_msg_type_2_str(i32 noundef %111, i32 noundef 1)
  %113 = call i32 (ptr, ...) @slurm_error(ptr noundef @.str.21, i32 noundef %110, ptr noundef %112)
  br label %114

114:                                              ; preds = %109, %107, %105, %103, %101
  br label %145

115:                                              ; preds = %95
  %116 = getelementptr inbounds nuw %struct.tm, ptr %13, i32 0, i32 3
  %117 = load i32, ptr %116, align 4
  %118 = icmp eq i32 %117, 1
  br i1 %118, label %119, label %144

119:                                              ; preds = %115
  %120 = getelementptr inbounds nuw %struct.tm, ptr %14, i32 0, i32 3
  %121 = load i32, ptr %120, align 4
  %122 = icmp eq i32 %121, 1
  br i1 %122, label %123, label %144

123:                                              ; preds = %119
  %124 = load i64, ptr %11, align 8
  %125 = load i64, ptr %10, align 8
  %126 = sub nsw i64 %124, %125
  %127 = icmp sgt i64 %126, 86400
  br i1 %127, label %128, label %144

128:                                              ; preds = %123
  %129 = load i32, ptr %7, align 4
  switch i32 %129, label %138 [
    i32 1411, label %130
    i32 1505, label %132
    i32 1457, label %134
    i32 1413, label %136
  ]

130:                                              ; preds = %128
  %131 = load ptr, ptr @assoc_month_table, align 8
  store ptr %131, ptr %15, align 8
  br label %143

132:                                              ; preds = %128
  %133 = load ptr, ptr @qos_month_table, align 8
  store ptr %133, ptr %15, align 8
  br label %143

134:                                              ; preds = %128
  %135 = load ptr, ptr @wckey_month_table, align 8
  store ptr %135, ptr %15, align 8
  br label %143

136:                                              ; preds = %128
  %137 = load ptr, ptr @cluster_month_table, align 8
  store ptr %137, ptr %15, align 8
  br label %143

138:                                              ; preds = %128
  %139 = load i32, ptr %7, align 4
  %140 = load i32, ptr %7, align 4
  %141 = call ptr @slurmdbd_msg_type_2_str(i32 noundef %140, i32 noundef 1)
  %142 = call i32 (ptr, ...) @slurm_error(ptr noundef @.str.22, i32 noundef %139, ptr noundef %141)
  br label %143

143:                                              ; preds = %138, %136, %134, %132, %130
  br label %144

144:                                              ; preds = %143, %123, %119, %115
  br label %145

145:                                              ; preds = %144, %114
  %146 = load i64, ptr %10, align 8
  %147 = load ptr, ptr %8, align 8
  store i64 %146, ptr %147, align 8
  %148 = load i64, ptr %11, align 8
  %149 = load ptr, ptr %9, align 8
  store i64 %148, ptr %149, align 8
  %150 = load ptr, ptr %15, align 8
  %151 = load ptr, ptr %6, align 8
  store ptr %150, ptr %151, align 8
  store i32 0, ptr %5, align 4
  store i32 1, ptr %16, align 4
  br label %152

152:                                              ; preds = %145, %78, %61, %50, %37, %29
  call void @llvm.lifetime.end.p0(i64 8, ptr %15) #8
  call void @llvm.lifetime.end.p0(i64 56, ptr %14) #8
  call void @llvm.lifetime.end.p0(i64 56, ptr %13) #8
  call void @llvm.lifetime.end.p0(i64 8, ptr %12) #8
  call void @llvm.lifetime.end.p0(i64 8, ptr %11) #8
  call void @llvm.lifetime.end.p0(i64 8, ptr %10) #8
  %153 = load i32, ptr %5, align 4
  ret i32 %153
}