; Function Attrs: nounwind uwtable
define dso_local range(i32 -1, 1) i32 @set_usage_information(ptr noundef captures(none) %0, i32 noundef %1, ptr noundef captures(none) %2, ptr noundef captures(none) %3) local_unnamed_addr #0 {
  %5 = alloca i64, align 8
  %6 = alloca i64, align 8
  %7 = alloca i64, align 8
  %8 = alloca %struct.tm, align 8
  %9 = alloca %struct.tm, align 8
  call void @llvm.lifetime.start.p0(i64 8, ptr nonnull %5) #12
  %10 = load i64, ptr %2, align 8
  store i64 %10, ptr %5, align 8
  call void @llvm.lifetime.start.p0(i64 8, ptr nonnull %6) #12
  %11 = load i64, ptr %3, align 8
  store i64 %11, ptr %6, align 8
  call void @llvm.lifetime.start.p0(i64 8, ptr nonnull %7) #12
  %12 = tail call i64 @time(ptr noundef null) #12
  store i64 %12, ptr %7, align 8
  call void @llvm.lifetime.start.p0(i64 56, ptr nonnull %8) #12
  call void @llvm.lifetime.start.p0(i64 56, ptr nonnull %9) #12
  %13 = load ptr, ptr %0, align 8
  %.not = icmp eq i64 %11, 0
  br i1 %.not, label %14, label %21

14:                                               ; preds = %4
  %15 = call ptr @localtime_r(ptr noundef nonnull %7, ptr noundef nonnull %9) #12
  %.not20 = icmp eq ptr %15, null
  br i1 %.not20, label %16, label %19

16:                                               ; preds = %14
  %17 = load i64, ptr %7, align 8
  %18 = call i32 (ptr, ...) @slurm_error(ptr noundef nonnull @.str.16, i64 noundef %17) #12
  br label %104

19:                                               ; preds = %14
  %20 = getelementptr inbounds nuw i8, ptr %9, i64 8
  store i32 0, ptr %20, align 8
  br label %26

21:                                               ; preds = %4
  %22 = call ptr @localtime_r(ptr noundef nonnull %6, ptr noundef nonnull %9) #12
  %.not21 = icmp eq ptr %22, null
  br i1 %.not21, label %23, label %26

23:                                               ; preds = %21
  %24 = load i64, ptr %6, align 8
  %25 = call i32 (ptr, ...) @slurm_error(ptr noundef nonnull @.str.17, i64 noundef %24) #12
  br label %104

26:                                               ; preds = %21, %19
  store i32 0, ptr %9, align 8
  %27 = getelementptr inbounds nuw i8, ptr %9, i64 4
  store i32 0, ptr %27, align 4
  %28 = call i64 @slurm_mktime(ptr noundef nonnull %9) #12
  store i64 %28, ptr %6, align 8
  %.not22 = icmp eq i64 %10, 0
  br i1 %.not22, label %29, label %39

29:                                               ; preds = %26
  %30 = call ptr @localtime_r(ptr noundef nonnull %7, ptr noundef nonnull %8) #12
  %.not23 = icmp eq ptr %30, null
  br i1 %.not23, label %31, label %34

31:                                               ; preds = %29
  %32 = load i64, ptr %7, align 8
  %33 = call i32 (ptr, ...) @slurm_error(ptr noundef nonnull @.str.18, i64 noundef %32) #12
  br label %104

34:                                               ; preds = %29
  %35 = getelementptr inbounds nuw i8, ptr %8, i64 8
  store i32 0, ptr %35, align 8
  %36 = getelementptr inbounds nuw i8, ptr %8, i64 12
  %37 = load i32, ptr %36, align 4
  %38 = add nsw i32 %37, -1
  store i32 %38, ptr %36, align 4
  br label %44

39:                                               ; preds = %26
  %40 = call ptr @localtime_r(ptr noundef nonnull %5, ptr noundef nonnull %8) #12
  %.not24 = icmp eq ptr %40, null
  br i1 %.not24, label %41, label %44

41:                                               ; preds = %39
  %42 = load i64, ptr %5, align 8
  %43 = call i32 (ptr, ...) @slurm_error(ptr noundef nonnull @.str.19, i64 noundef %42) #12
  br label %104

44:                                               ; preds = %39, %34
  store i32 0, ptr %8, align 8
  %45 = getelementptr inbounds nuw i8, ptr %8, i64 4
  store i32 0, ptr %45, align 4
  %46 = call i64 @slurm_mktime(ptr noundef nonnull %8) #12
  store i64 %46, ptr %5, align 8
  %47 = load i64, ptr %6, align 8
  %48 = sub nsw i64 %47, %46
  %49 = icmp slt i64 %48, 3600
  br i1 %49, label %50, label %56

50:                                               ; preds = %44
  %51 = add nsw i64 %46, 3600
  store i64 %51, ptr %6, align 8
  %52 = call ptr @localtime_r(ptr noundef nonnull %6, ptr noundef nonnull %9) #12
  %.not25 = icmp eq ptr %52, null
  br i1 %.not25, label %53, label %56

53:                                               ; preds = %50
  %54 = load i64, ptr %6, align 8
  %55 = call i32 (ptr, ...) @slurm_error(ptr noundef nonnull @.str.20, i64 noundef %54) #12
  br label %104

56:                                               ; preds = %50, %44
  %57 = getelementptr inbounds nuw i8, ptr %8, i64 8
  %58 = load i32, ptr %57, align 8
  %59 = icmp ne i32 %58, 0
  %60 = getelementptr inbounds nuw i8, ptr %9, i64 8
  %61 = load i32, ptr %60, align 8
  %62 = icmp ne i32 %61, 0
  %or.cond = select i1 %59, i1 true, i1 %62
  br i1 %or.cond, label %70, label %63

63:                                               ; preds = %56
  %64 = load i64, ptr %6, align 8
  %65 = load i64, ptr %5, align 8
  %66 = sub nsw i64 %64, %65
  %67 = icmp slt i64 %66, 86400
  %68 = load i64, ptr %7, align 8
  %69 = icmp sgt i64 %64, %68
  %or.cond28 = select i1 %67, i1 true, i1 %69
  br i1 %or.cond28, label %70, label %82

70:                                               ; preds = %63, %56
  switch i32 %1, label %79 [
    i32 1411, label %71
    i32 1505, label %73
    i32 1457, label %75
    i32 1413, label %77
  ]

71:                                               ; preds = %70
  %72 = load ptr, ptr @assoc_hour_table, align 8
  br label %101

73:                                               ; preds = %70
  %74 = load ptr, ptr @qos_hour_table, align 8
  br label %101

75:                                               ; preds = %70
  %76 = load ptr, ptr @wckey_hour_table, align 8
  br label %101

77:                                               ; preds = %70
  %78 = load ptr, ptr @cluster_hour_table, align 8
  br label %101

79:                                               ; preds = %70
  %80 = call ptr @slurmdbd_msg_type_2_str(i32 noundef %1, i32 noundef 1) #12
  %81 = call i32 (ptr, ...) @slurm_error(ptr noundef nonnull @.str.21, i32 noundef %1, ptr noundef %80) #12
  br label %101

82:                                               ; preds = %63
  %83 = getelementptr inbounds nuw i8, ptr %8, i64 12
  %84 = load i32, ptr %83, align 4
  %85 = icmp ne i32 %84, 1
  %86 = getelementptr inbounds nuw i8, ptr %9, i64 12
  %87 = load i32, ptr %86, align 4
  %88 = icmp ne i32 %87, 1
  %or.cond5.not32 = select i1 %85, i1 true, i1 %88
  %.not26 = icmp eq i64 %66, 86400
  %or.cond29 = or i1 %.not26, %or.cond5.not32
  br i1 %or.cond29, label %101, label %89

89:                                               ; preds = %82
  switch i32 %1, label %98 [
    i32 1411, label %90
    i32 1505, label %92
    i32 1457, label %94
    i32 1413, label %96
  ]

90:                                               ; preds = %89
  %91 = load ptr, ptr @assoc_month_table, align 8
  br label %101

92:                                               ; preds = %89
  %93 = load ptr, ptr @qos_month_table, align 8
  br label %101

94:                                               ; preds = %89
  %95 = load ptr, ptr @wckey_month_table, align 8
  br label %101

96:                                               ; preds = %89
  %97 = load ptr, ptr @cluster_month_table, align 8
  br label %101

98:                                               ; preds = %89
  %99 = call ptr @slurmdbd_msg_type_2_str(i32 noundef %1, i32 noundef 1) #12
  %100 = call i32 (ptr, ...) @slurm_error(ptr noundef nonnull @.str.22, i32 noundef %1, ptr noundef %99) #12
  br label %101

101:                                              ; preds = %82, %98, %96, %94, %92, %90, %71, %73, %75, %77, %79
  %.0 = phi ptr [ %13, %79 ], [ %78, %77 ], [ %76, %75 ], [ %74, %73 ], [ %72, %71 ], [ %13, %98 ], [ %97, %96 ], [ %95, %94 ], [ %93, %92 ], [ %91, %90 ], [ %13, %82 ]
  %102 = load i64, ptr %5, align 8
  store i64 %102, ptr %2, align 8
  %103 = load i64, ptr %6, align 8
  store i64 %103, ptr %3, align 8
  store ptr %.0, ptr %0, align 8
  br label %104

104:                                              ; preds = %101, %53, %41, %31, %23, %16
  %.018 = phi i32 [ 0, %101 ], [ -1, %53 ], [ -1, %41 ], [ -1, %31 ], [ -1, %23 ], [ -1, %16 ]
  call void @llvm.lifetime.end.p0(i64 56, ptr nonnull %9) #12
  call void @llvm.lifetime.end.p0(i64 56, ptr nonnull %8) #12
  call void @llvm.lifetime.end.p0(i64 8, ptr nonnull %7) #12
  call void @llvm.lifetime.end.p0(i64 8, ptr nonnull %6) #12
  call void @llvm.lifetime.end.p0(i64 8, ptr nonnull %5) #12
  ret i32 %.018
}